; Function Attrs: mustprogress nofree norecurse nosync nounwind willreturn memory(read, inaccessiblemem: none) uwtable
define noundef i32 @_ZNK7testing9TestSuite19disabled_test_countEv(ptr noundef nonnull readonly align 8 captures(none) dereferenceable(264) %0) local_unnamed_addr #24 align 2 {
  %2 = getelementptr inbounds nuw i8, ptr %0, i64 48
  %3 = load ptr, ptr %2, align 8, !tbaa !791
  %4 = getelementptr inbounds nuw i8, ptr %0, i64 56
  %5 = load ptr, ptr %4, align 8, !tbaa !791
  %.not7.i = icmp eq ptr %3, %5
  br i1 %.not7.i, label %_ZN7testing8internal7CountIfISt6vectorIPNS_8TestInfoESaIS4_EEPFbPKS3_EEEiRKT_T0_.exit, label %.lr.ph.i

.lr.ph.i:                                         ; preds = %1, %.lr.ph.i
  %.09.i = phi i32 [ %spec.select.i, %.lr.ph.i ], [ 0, %1 ]
  %.sroa.04.08.i = phi ptr [ %10, %.lr.ph.i ], [ %3, %1 ]
  %6 = load ptr, ptr %.sroa.04.08.i, align 8, !tbaa !792
  %7 = getelementptr inbounds nuw i8, ptr %6, i64 129
  %8 = load i8, ptr %7, align 1, !tbaa !801, !range !16, !noundef !17
  %9 = zext nneg i8 %8 to i32
  %spec.select.i = add nuw nsw i32 %.09.i, %9
  %10 = getelementptr inbounds nuw i8, ptr %.sroa.04.08.i, i64 8
  %.not.i = icmp eq ptr %10, %5
  br i1 %.not.i, label %_ZN7testing8internal7CountIfISt6vectorIPNS_8TestInfoESaIS4_EEPFbPKS3_EEEiRKT_T0_.exit, label %.lr.ph.i, !llvm.loop !798

_ZN7testing8internal7CountIfISt6vectorIPNS_8TestInfoESaIS4_EEPFbPKS3_EEEiRKT_T0_.exit: ; preds = %.lr.ph.i, %1
  %.0.lcssa.i = phi i32 [ 0, %1 ], [ %spec.select.i, %.lr.ph.i ]
  ret i32 %.0.lcssa.i
}